target datalayout = "e-m:e-p270:32:32-p271:32:32-p272:64:64-i64:64-i128:128-f80:128-n8:16:32:64-S128"
target triple = "x86_64-pc-linux-gnu"

%struct.sfparse_parser = type { ptr, ptr, i32 }
%struct.sfparse_value = type { i32, i32, %union.anon }
%union.anon = type { %struct.sfparse_decimal }
%struct.sfparse_decimal = type { i64, i64 }

@.str.1 = private unnamed_addr constant [107 x i8] c"generated/home/dtcxzyw/WorkSpace/Projects/compilers/llvm-opt-benchmark/bench/nghttp2/nghttp2/lib/sfparse.c\00", align 1
@.str.5 = private unnamed_addr constant [17 x i8] c"!parser_eof(sfp)\00", align 1
@__PRETTY_FUNCTION__.parser_number = private unnamed_addr constant [53 x i8] c"int parser_number(sfparse_parser *, sfparse_value *)\00", align 1

; Function Attrs: nounwind uwtable
define internal i32 @parser_eof(ptr noundef %0) #0 {
  %2 = alloca ptr, align 8
  store ptr %0, ptr %2, align 8, !tbaa !3
  %3 = load ptr, ptr %2, align 8, !tbaa !3
  %4 = getelementptr inbounds nuw %struct.sfparse_parser, ptr %3, i32 0, i32 0
  %5 = load ptr, ptr %4, align 8, !tbaa !17
  %6 = load ptr, ptr %2, align 8, !tbaa !3
  %7 = getelementptr inbounds nuw %struct.sfparse_parser, ptr %6, i32 0, i32 1
  %8 = load ptr, ptr %7, align 8, !tbaa !22
  %9 = icmp eq ptr %5, %8
  %10 = zext i1 %9 to i32
  ret i32 %10
}

; Function Attrs: nounwind uwtable
define internal i32 @parser_number(ptr noundef %0, ptr noundef %1) #0 {
  %3 = alloca i32, align 4
  %4 = alloca ptr, align 8
  %5 = alloca ptr, align 8
  %6 = alloca i32, align 4
  %7 = alloca i64, align 8
  %8 = alloca i64, align 8
  %9 = alloca i64, align 8
  %10 = alloca i32, align 4
  store ptr %0, ptr %4, align 8, !tbaa !3
  store ptr %1, ptr %5, align 8, !tbaa !10
  call void @llvm.lifetime.start.p0(i64 4, ptr %6) #5
  store i32 1, ptr %6, align 4, !tbaa !16
  call void @llvm.lifetime.start.p0(i64 8, ptr %7) #5
  store i64 0, ptr %7, align 8, !tbaa !31
  call void @llvm.lifetime.start.p0(i64 8, ptr %8) #5
  store i64 0, ptr %8, align 8, !tbaa !31
  call void @llvm.lifetime.start.p0(i64 8, ptr %9) #5
  store i64 0, ptr %9, align 8, !tbaa !31
  %11 = load ptr, ptr %4, align 8, !tbaa !3
  %12 = getelementptr inbounds nuw %struct.sfparse_parser, ptr %11, i32 0, i32 0
  %13 = load ptr, ptr %12, align 8, !tbaa !17
  %14 = load i8, ptr %13, align 1, !tbaa !18
  %15 = zext i8 %14 to i32
  %16 = icmp eq i32 %15, 45
  br i1 %16, label %17, label %27

17:                                               ; preds = %2
  %18 = load ptr, ptr %4, align 8, !tbaa !3
  %19 = getelementptr inbounds nuw %struct.sfparse_parser, ptr %18, i32 0, i32 0
  %20 = load ptr, ptr %19, align 8, !tbaa !17
  %21 = getelementptr inbounds nuw i8, ptr %20, i32 1
  store ptr %21, ptr %19, align 8, !tbaa !17
  %22 = load ptr, ptr %4, align 8, !tbaa !3
  %23 = call i32 @parser_eof(ptr noundef %22)
  %24 = icmp ne i32 %23, 0
  br i1 %24, label %25, label %26

25:                                               ; preds = %17
  store i32 -1, ptr %3, align 4
  store i32 1, ptr %10, align 4
  br label %184

26:                                               ; preds = %17
  store i32 -1, ptr %6, align 4, !tbaa !16
  br label %27

27:                                               ; preds = %26, %2
  %28 = load ptr, ptr %4, align 8, !tbaa !3
  %29 = call i32 @parser_eof(ptr noundef %28)
  %30 = icmp ne i32 %29, 0
  br i1 %30, label %32, label %31

31:                                               ; preds = %27
  br label %33

32:                                               ; preds = %27
  call void @__assert_fail(ptr noundef @.str.5, ptr noundef @.str.1, i32 noundef 533, ptr noundef @__PRETTY_FUNCTION__.parser_number) #6
  unreachable

33:                                               ; preds = %31
  br label %34

34:                                               ; preds = %63, %33
  %35 = load ptr, ptr %4, align 8, !tbaa !3
  %36 = call i32 @parser_eof(ptr noundef %35)
  %37 = icmp ne i32 %36, 0
  %38 = xor i1 %37, true
  br i1 %38, label %39, label %68

39:                                               ; preds = %34
  %40 = load ptr, ptr %4, align 8, !tbaa !3
  %41 = getelementptr inbounds nuw %struct.sfparse_parser, ptr %40, i32 0, i32 0
  %42 = load ptr, ptr %41, align 8, !tbaa !17
  %43 = load i8, ptr %42, align 1, !tbaa !18
  %44 = zext i8 %43 to i32
  switch i32 %44, label %62 [
    i32 48, label %45
    i32 49, label %45
    i32 50, label %45
    i32 51, label %45
    i32 52, label %45
    i32 53, label %45
    i32 54, label %45
    i32 55, label %45
    i32 56, label %45
    i32 57, label %45
  ]

45:                                               ; preds = %39, %39, %39, %39, %39, %39, %39, %39, %39, %39
  %46 = load i64, ptr %8, align 8, !tbaa !31
  %47 = add i64 %46, 1
  store i64 %47, ptr %8, align 8, !tbaa !31
  %48 = icmp ugt i64 %47, 15
  br i1 %48, label %49, label %50

49:                                               ; preds = %45
  store i32 -1, ptr %3, align 4
  store i32 1, ptr %10, align 4
  br label %184

50:                                               ; preds = %45
  %51 = load i64, ptr %7, align 8, !tbaa !31
  %52 = mul nsw i64 %51, 10
  store i64 %52, ptr %7, align 8, !tbaa !31
  %53 = load ptr, ptr %4, align 8, !tbaa !3
  %54 = getelementptr inbounds nuw %struct.sfparse_parser, ptr %53, i32 0, i32 0
  %55 = load ptr, ptr %54, align 8, !tbaa !17
  %56 = load i8, ptr %55, align 1, !tbaa !18
  %57 = zext i8 %56 to i32
  %58 = sub nsw i32 %57, 48
  %59 = sext i32 %58 to i64
  %60 = load i64, ptr %7, align 8, !tbaa !31
  %61 = add nsw i64 %60, %59
  store i64 %61, ptr %7, align 8, !tbaa !31
  br label %63

62:                                               ; preds = %39
  br label %68

63:                                               ; preds = %50
  %64 = load ptr, ptr %4, align 8, !tbaa !3
  %65 = getelementptr inbounds nuw %struct.sfparse_parser, ptr %64, i32 0, i32 0
  %66 = load ptr, ptr %65, align 8, !tbaa !17
  %67 = getelementptr inbounds nuw i8, ptr %66, i32 1
  store ptr %67, ptr %65, align 8, !tbaa !17
  br label %34, !llvm.loop !38

68:                                               ; preds = %62, %34
  %69 = load i64, ptr %8, align 8, !tbaa !31
  %70 = icmp eq i64 %69, 0
  br i1 %70, label %71, label %72

71:                                               ; preds = %68
  store i32 -1, ptr %3, align 4
  store i32 1, ptr %10, align 4
  br label %184

72:                                               ; preds = %68
  %73 = load ptr, ptr %4, align 8, !tbaa !3
  %74 = call i32 @parser_eof(ptr noundef %73)
  %75 = icmp ne i32 %74, 0
  br i1 %75, label %83, label %76

76:                                               ; preds = %72
  %77 = load ptr, ptr %4, align 8, !tbaa !3
  %78 = getelementptr inbounds nuw %struct.sfparse_parser, ptr %77, i32 0, i32 0
  %79 = load ptr, ptr %78, align 8, !tbaa !17
  %80 = load i8, ptr %79, align 1, !tbaa !18
  %81 = zext i8 %80 to i32
  %82 = icmp ne i32 %81, 46
  br i1 %82, label %83, label %98

83:                                               ; preds = %76, %72
  %84 = load ptr, ptr %5, align 8, !tbaa !10
  %85 = icmp ne ptr %84, null
  br i1 %85, label %86, label %97

86:                                               ; preds = %83
  %87 = load ptr, ptr %5, align 8, !tbaa !10
  %88 = getelementptr inbounds nuw %struct.sfparse_value, ptr %87, i32 0, i32 0
  store i32 1, ptr %88, align 8, !tbaa !19
  %89 = load ptr, ptr %5, align 8, !tbaa !10
  %90 = getelementptr inbounds nuw %struct.sfparse_value, ptr %89, i32 0, i32 1
  store i32 0, ptr %90, align 4, !tbaa !21
  %91 = load i64, ptr %7, align 8, !tbaa !31
  %92 = load i32, ptr %6, align 4, !tbaa !16
  %93 = sext i32 %92 to i64
  %94 = mul nsw i64 %91, %93
  %95 = load ptr, ptr %5, align 8, !tbaa !10
  %96 = getelementptr inbounds nuw %struct.sfparse_value, ptr %95, i32 0, i32 2
  store i64 %94, ptr %96, align 8, !tbaa !18
  br label %97

97:                                               ; preds = %86, %83
  store i32 0, ptr %3, align 4
  store i32 1, ptr %10, align 4
  br label %184

98:                                               ; preds = %76
  %99 = load i64, ptr %8, align 8, !tbaa !31
  %100 = icmp ugt i64 %99, 12
  br i1 %100, label %101, label %102

101:                                              ; preds = %98
  store i32 -1, ptr %3, align 4
  store i32 1, ptr %10, align 4
  br label %184

102:                                              ; preds = %98
  %103 = load i64, ptr %8, align 8, !tbaa !31
  store i64 %103, ptr %9, align 8, !tbaa !31
  %104 = load ptr, ptr %4, align 8, !tbaa !3
  %105 = getelementptr inbounds nuw %struct.sfparse_parser, ptr %104, i32 0, i32 0
  %106 = load ptr, ptr %105, align 8, !tbaa !17
  %107 = getelementptr inbounds nuw i8, ptr %106, i32 1
  store ptr %107, ptr %105, align 8, !tbaa !17
  br label %108

108:                                              ; preds = %137, %102
  %109 = load ptr, ptr %4, align 8, !tbaa !3
  %110 = call i32 @parser_eof(ptr noundef %109)
  %111 = icmp ne i32 %110, 0
  %112 = xor i1 %111, true
  br i1 %112, label %113, label %142

113:                                              ; preds = %108
  %114 = load ptr, ptr %4, align 8, !tbaa !3
  %115 = getelementptr inbounds nuw %struct.sfparse_parser, ptr %114, i32 0, i32 0
  %116 = load ptr, ptr %115, align 8, !tbaa !17
  %117 = load i8, ptr %116, align 1, !tbaa !18
  %118 = zext i8 %117 to i32
  switch i32 %118, label %136 [
    i32 48, label %119
    i32 49, label %119
    i32 50, label %119
    i32 51, label %119
    i32 52, label %119
    i32 53, label %119
    i32 54, label %119
    i32 55, label %119
    i32 56, label %119
    i32 57, label %119
  ]

119:                                              ; preds = %113, %113, %113, %113, %113, %113, %113, %113, %113, %113
  %120 = load i64, ptr %8, align 8, !tbaa !31
  %121 = add i64 %120, 1
  store i64 %121, ptr %8, align 8, !tbaa !31
  %122 = icmp ugt i64 %121, 15
  br i1 %122, label %123, label %124

123:                                              ; preds = %119
  store i32 -1, ptr %3, align 4
  store i32 1, ptr %10, align 4
  br label %184

124:                                              ; preds = %119
  %125 = load i64, ptr %7, align 8, !tbaa !31
  %126 = mul nsw i64 %125, 10
  store i64 %126, ptr %7, align 8, !tbaa !31
  %127 = load ptr, ptr %4, align 8, !tbaa !3
  %128 = getelementptr inbounds nuw %struct.sfparse_parser, ptr %127, i32 0, i32 0
  %129 = load ptr, ptr %128, align 8, !tbaa !17
  %130 = load i8, ptr %129, align 1, !tbaa !18
  %131 = zext i8 %130 to i32
  %132 = sub nsw i32 %131, 48
  %133 = sext i32 %132 to i64
  %134 = load i64, ptr %7, align 8, !tbaa !31
  %135 = add nsw i64 %134, %133
  store i64 %135, ptr %7, align 8, !tbaa !31
  br label %137

136:                                              ; preds = %113
  br label %142

137:                                              ; preds = %124
  %138 = load ptr, ptr %4, align 8, !tbaa !3
  %139 = getelementptr inbounds nuw %struct.sfparse_parser, ptr %138, i32 0, i32 0
  %140 = load ptr, ptr %139, align 8, !tbaa !17
  %141 = getelementptr inbounds nuw i8, ptr %140, i32 1
  store ptr %141, ptr %139, align 8, !tbaa !17
  br label %108, !llvm.loop !39

142:                                              ; preds = %136, %108
  %143 = load i64, ptr %9, align 8, !tbaa !31
  %144 = load i64, ptr %8, align 8, !tbaa !31
  %145 = icmp eq i64 %143, %144
  br i1 %145, label %151, label %146

146:                                              ; preds = %142
  %147 = load i64, ptr %8, align 8, !tbaa !31
  %148 = load i64, ptr %9, align 8, !tbaa !31
  %149 = sub i64 %147, %148
  %150 = icmp ugt i64 %149, 3
  br i1 %150, label %151, label %152

151:                                              ; preds = %146, %142
  store i32 -1, ptr %3, align 4
  store i32 1, ptr %10, align 4
  br label %184

152:                                              ; preds = %146
  %153 = load ptr, ptr %5, align 8, !tbaa !10
  %154 = icmp ne ptr %153, null
  br i1 %154, label %155, label %183

155:                                              ; preds = %152
  %156 = load ptr, ptr %5, align 8, !tbaa !10
  %157 = getelementptr inbounds nuw %struct.sfparse_value, ptr %156, i32 0, i32 0
  store i32 2, ptr %157, align 8, !tbaa !19
  %158 = load ptr, ptr %5, align 8, !tbaa !10
  %159 = getelementptr inbounds nuw %struct.sfparse_value, ptr %158, i32 0, i32 1
  store i32 0, ptr %159, align 4, !tbaa !21
  %160 = load i64, ptr %7, align 8, !tbaa !31
  %161 = load i32, ptr %6, align 4, !tbaa !16
  %162 = sext i32 %161 to i64
  %163 = mul nsw i64 %160, %162
  %164 = load ptr, ptr %5, align 8, !tbaa !10
  %165 = getelementptr inbounds nuw %struct.sfparse_value, ptr %164, i32 0, i32 2
  %166 = getelementptr inbounds nuw %struct.sfparse_decimal, ptr %165, i32 0, i32 0
  store i64 %163, ptr %166, align 8, !tbaa !18
  %167 = load i64, ptr %8, align 8, !tbaa !31
  %168 = load i64, ptr %9, align 8, !tbaa !31
  %169 = sub i64 %167, %168
  switch i64 %169, label %182 [
    i64 1, label %170
    i64 2, label %174
    i64 3, label %178
  ]

170:                                              ; preds = %155
  %171 = load ptr, ptr %5, align 8, !tbaa !10
  %172 = getelementptr inbounds nuw %struct.sfparse_value, ptr %171, i32 0, i32 2
  %173 = getelementptr inbounds nuw %struct.sfparse_decimal, ptr %172, i32 0, i32 1
  store i64 10, ptr %173, align 8, !tbaa !18
  br label %182

174:                                              ; preds = %155
  %175 = load ptr, ptr %5, align 8, !tbaa !10
  %176 = getelementptr inbounds nuw %struct.sfparse_value, ptr %175, i32 0, i32 2
  %177 = getelementptr inbounds nuw %struct.sfparse_decimal, ptr %176, i32 0, i32 1
  store i64 100, ptr %177, align 8, !tbaa !18
  br label %182

178:                                              ; preds = %155
  %179 = load ptr, ptr %5, align 8, !tbaa !10
  %180 = getelementptr inbounds nuw %struct.sfparse_value, ptr %179, i32 0, i32 2
  %181 = getelementptr inbounds nuw %struct.sfparse_decimal, ptr %180, i32 0, i32 1
  store i64 1000, ptr %181, align 8, !tbaa !18
  br label %182

182:                                              ; preds = %155, %178, %174, %170
  br label %183

183:                                              ; preds = %182, %152
  store i32 0, ptr %3, align 4
  store i32 1, ptr %10, align 4
  br label %184

184:                                              ; preds = %183, %151, %123, %101, %97, %71, %49, %25
  call void @llvm.lifetime.end.p0(i64 8, ptr %9) #5
  call void @llvm.lifetime.end.p0(i64 8, ptr %8) #5
  call void @llvm.lifetime.end.p0(i64 8, ptr %7) #5
  call void @llvm.lifetime.end.p0(i64 4, ptr %6) #5
  %185 = load i32, ptr %3, align 4
  ret i32 %185
}