; Function Attrs: nounwind uwtable
define internal fastcc range(i32 -1, 1) i32 @parser_number(ptr noundef captures(none) %0, ptr noundef writeonly %1) unnamed_addr #0 {
  %3 = load ptr, ptr %0, align 8, !tbaa !10
  %4 = load i8, ptr %3, align 1, !tbaa !12
  %5 = icmp eq i8 %4, 45
  br i1 %5, label %6, label %._crit_edge115

._crit_edge115:                                   ; preds = %2
  %.phi.trans.insert = getelementptr i8, ptr %0, i64 8
  %.val69.pre = load ptr, ptr %.phi.trans.insert, align 8, !tbaa !11
  br label %9

6:                                                ; preds = %2
  %7 = getelementptr inbounds nuw i8, ptr %3, i64 1
  store ptr %7, ptr %0, align 8, !tbaa !10
  %8 = getelementptr i8, ptr %0, i64 8
  %.val71 = load ptr, ptr %8, align 8, !tbaa !11
  %.not = icmp eq ptr %7, %.val71
  br i1 %.not, label %.loopexit, label %9

9:                                                ; preds = %._crit_edge115, %6
  %.val69 = phi ptr [ %.val69.pre, %._crit_edge115 ], [ %.val71, %6 ]
  %.promoted = phi ptr [ %3, %._crit_edge115 ], [ %7, %6 ]
  %.047 = phi i64 [ 1, %._crit_edge115 ], [ -1, %6 ]
  %.val69111 = ptrtoint ptr %.val69 to i64
  %.not73 = icmp eq ptr %.promoted, %.val69
  br i1 %.not73, label %10, label %.lr.ph.preheader

.lr.ph.preheader:                                 ; preds = %9
  %.promoted112 = ptrtoint ptr %.promoted to i64
  br label %.lr.ph

10:                                               ; preds = %9
  tail call void @__assert_fail(ptr noundef nonnull @.str.5, ptr noundef nonnull @.str.1, i32 noundef 533, ptr noundef nonnull @__PRETTY_FUNCTION__.parser_number) #8
  unreachable

.lr.ph:                                           ; preds = %.lr.ph.preheader, %13
  %.091 = phi i64 [ %14, %13 ], [ 0, %.lr.ph.preheader ]
  %.04590 = phi i64 [ %18, %13 ], [ 0, %.lr.ph.preheader ]
  %.val668789 = phi ptr [ %19, %13 ], [ %.promoted, %.lr.ph.preheader ]
  %11 = load i8, ptr %.val668789, align 1, !tbaa !12
  %.off = add i8 %11, -48
  %switch = icmp ult i8 %.off, 10
  br i1 %switch, label %12, label %20

12:                                               ; preds = %.lr.ph
  %exitcond = icmp eq i64 %.091, 15
  br i1 %exitcond, label %.loopexit, label %13

13:                                               ; preds = %12
  %14 = add nuw nsw i64 %.091, 1
  %15 = mul nsw i64 %.04590, 10
  %16 = zext nneg i8 %11 to i64
  %17 = add i64 %15, -48
  %18 = add i64 %17, %16
  %19 = getelementptr inbounds nuw i8, ptr %.val668789, i64 1
  store ptr %19, ptr %0, align 8, !tbaa !10
  %.not74 = icmp eq ptr %19, %.val69
  br i1 %.not74, label %.thread72, label %.lr.ph, !llvm.loop !29

20:                                               ; preds = %.lr.ph
  %21 = icmp eq i64 %.091, 0
  br i1 %21, label %.loopexit, label %22

22:                                               ; preds = %20
  %.not57 = icmp eq i8 %11, 46
  br i1 %.not57, label %26, label %.thread72

.thread72:                                        ; preds = %13, %22
  %.04586 = phi i64 [ %.04590, %22 ], [ %18, %13 ]
  %.not60 = icmp eq ptr %1, null
  br i1 %.not60, label %.loopexit, label %23

23:                                               ; preds = %.thread72
  store i32 1, ptr %1, align 8, !tbaa !15
  %24 = getelementptr inbounds nuw i8, ptr %1, i64 4
  store i32 0, ptr %24, align 4, !tbaa !17
  %25 = mul nsw i64 %.04586, %.047
  br label %.loopexit.sink.split

26:                                               ; preds = %22
  %27 = icmp samesign ugt i64 %.091, 12
  br i1 %27, label %.loopexit, label %.preheader

.preheader:                                       ; preds = %26
  %storemerge93 = getelementptr inbounds nuw i8, ptr %.val668789, i64 1
  store ptr %storemerge93, ptr %0, align 8, !tbaa !10
  %.not7594 = icmp eq ptr %storemerge93, %.val69
  br i1 %.not7594, label %._crit_edge, label %.lr.ph98.preheader

.lr.ph98.preheader:                               ; preds = %.preheader
  %28 = xor i64 %.promoted112, -1
  %29 = add i64 %28, %.val69111
  br label %.lr.ph98

.lr.ph98:                                         ; preds = %.lr.ph98.preheader, %32
  %storemerge97 = phi ptr [ %storemerge, %32 ], [ %storemerge93, %.lr.ph98.preheader ]
  %.196 = phi i64 [ %33, %32 ], [ %.091, %.lr.ph98.preheader ]
  %.14695 = phi i64 [ %37, %32 ], [ %.04590, %.lr.ph98.preheader ]
  %30 = load i8, ptr %storemerge97, align 1, !tbaa !12
  %.off61 = add i8 %30, -48
  %switch62 = icmp ult i8 %.off61, 10
  br i1 %switch62, label %31, label %._crit_edge

31:                                               ; preds = %.lr.ph98
  %exitcond113 = icmp eq i64 %.196, 15
  br i1 %exitcond113, label %.loopexit, label %32

32:                                               ; preds = %31
  %33 = add nuw nsw i64 %.196, 1
  %34 = mul nsw i64 %.14695, 10
  %35 = zext nneg i8 %30 to i64
  %36 = add i64 %34, -48
  %37 = add i64 %36, %35
  %storemerge = getelementptr inbounds nuw i8, ptr %storemerge97, i64 1
  store ptr %storemerge, ptr %0, align 8, !tbaa !10
  %.not75 = icmp eq ptr %storemerge, %.val69
  br i1 %.not75, label %._crit_edge, label %.lr.ph98, !llvm.loop !30

._crit_edge:                                      ; preds = %32, %.lr.ph98, %.preheader
  %.146.lcssa = phi i64 [ %.04590, %.preheader ], [ %.14695, %.lr.ph98 ], [ %37, %32 ]
  %.1.lcssa = phi i64 [ %.091, %.preheader ], [ %.196, %.lr.ph98 ], [ %29, %32 ]
  %38 = icmp eq i64 %.091, %.1.lcssa
  br i1 %38, label %.loopexit, label %39

39:                                               ; preds = %._crit_edge
  %40 = sub nsw i64 %.1.lcssa, %.091
  %41 = icmp ugt i64 %40, 3
  br i1 %41, label %.loopexit, label %42

42:                                               ; preds = %39
  %.not59 = icmp eq ptr %1, null
  br i1 %.not59, label %.loopexit, label %switch.lookup

switch.lookup:                                    ; preds = %42
  store i32 2, ptr %1, align 8, !tbaa !15
  %43 = getelementptr inbounds nuw i8, ptr %1, i64 4
  store i32 0, ptr %43, align 4, !tbaa !17
  %44 = mul nsw i64 %.146.lcssa, %.047
  %45 = getelementptr inbounds nuw i8, ptr %1, i64 8
  store i64 %44, ptr %45, align 8, !tbaa !12
  %switch.tableidx = add nsw i64 %40, -1
  %switch.gep = getelementptr inbounds [3 x i64], ptr @switch.table.parser_number, i64 0, i64 %switch.tableidx
  %switch.load = load i64, ptr %switch.gep, align 8
  br label %.loopexit.sink.split

.loopexit.sink.split:                             ; preds = %switch.lookup, %23
  %.sink128 = phi i64 [ 8, %23 ], [ 16, %switch.lookup ]
  %.sink = phi i64 [ %25, %23 ], [ %switch.load, %switch.lookup ]
  %46 = getelementptr inbounds nuw i8, ptr %1, i64 %.sink128
  store i64 %.sink, ptr %46, align 8, !tbaa !12
  br label %.loopexit

.loopexit:                                        ; preds = %12, %31, %.loopexit.sink.split, %42, %._crit_edge, %39, %26, %.thread72, %20, %6
  %.048 = phi i32 [ -1, %6 ], [ -1, %20 ], [ 0, %.thread72 ], [ -1, %26 ], [ -1, %39 ], [ -1, %._crit_edge ], [ 0, %42 ], [ 0, %.loopexit.sink.split ], [ -1, %31 ], [ -1, %12 ]
  ret i32 %.048
}